(dp1
S'lang'
p2
Vresources/lang/english.json
p3
sS'scale'
p4
F1
sS'srtBdgt'
p5
I100
sS'check4updates'
p6
I01
sS'battleEnd'
p7
S'Go to start'
p8
sS'music'
p9
F0.3125
sS'effects'
p10
F0.75
sS'fps'
p11
I60
sS'coinRR'
p12
I100
sS'font'
p13
Ns.