(dp1
S'lang'
p2
Vresources/lang/english.json
p3
sS'scale'
p4
F0.625
sS'srtBdgt'
p5
I200
sS'check4updates'
p6
I00
sS'battleEnd'
p7
S'Go to start'
p8
sS'effects'
p9
F0.75
sS'fps'
p10
I120
sS'coinRR'
p11
I50
sS'music'
p12
F0.3125
sS'font'
p13
S'resources/fonts/freesansbold.ttf'
p14
s.