(dp1
S'lang'
p2
S'resources/lang/english.json'
p3
sS'scale'
p4
F1
sS'srtBdgt'
p5
I200
sS'check4updates'
p6
I01
sS'battleEnd'
p7
S'Go to start'
p8
sS'effects'
p9
F0.5
sS'fps'
p10
I75
sS'coinRR'
p11
I50
sS'music'
p12
F0.25
sS'font'
p13
Ns.