(dp1
S'lang'
p2
Vresources/lang/english.json
p3
sS'scale'
p4
F0.625
sS'music'
p5
F0.3125
sS'srtBdgt'
p6
I1800
sS'check4updates'
p7
I00
sS'battleEnd'
p8
S'Go to start'
p9
sS'effects'
p10
F0.75
sS'fps'
p11
I120
sS'coinRR'
p12
I100
sS'font'
p13
S'resources/fonts/Quivira.ttf'
p14
s.