(dp1
S'lang'
p2
Vresources/lang/english.json
p3
sS'scale'
p4
F1
sS'music'
p5
F0.3125
sS'srtBdgt'
p6
I100
sS'check4updates'
p7
I00
sS'battleEnd'
p8
S'Do nothing'
p9
sS'effects'
p10
F0.75
sS'fps'
p11
I60
sS'coinRR'
p12
I100
sS'font'
p13
Ns.