(dp1
S'lang'
p2
S'resources/lang/english.json'
p3
sS'scale'
p4
F1
sS'srtBdgt'
p5
I200
sS'check4updates'
p6
I00
sS'music'
p7
F0.3125
sS'effects'
p8
F0.75
sS'fps'
p9
I120
sS'coinRR'
p10
I50
sS'battleEnd'
p11
S'Go to start'
p12
sS'font'
p13
Ns.