(dp1
S'lang'
p2
S'resources/lang/english.json'
p3
sS'scale'
p4
F1
sS'music'
p5
F0.25
sS'srtBdgt'
p6
I200
sS'check4updates'
p7
I01
sS'battleEnd'
p8
S'Clear'
p9
sS'effects'
p10
F0.5
sS'fps'
p11
I0
sS'coinRR'
p12
I50
sS'font'
p13
Ns.