(dp1
S'lang'
p2
Vresources/lang/english.json
p3
sS'scale'
p4
F1
sS'srtBdgt'
p5
I100
sS'check4updates'
p6
I01
sS'battleEnd'
p7
S'Go to start'
p8
sS'effects'
p9
F0.75
sS'fps'
p10
I60
sS'coinRR'
p11
I100
sS'music'
p12
F0.3125
sS'font'
p13
Ns.