(dp1
S'lang'
p2
Vresources/lang/english.json
p3
sS'scale'
p4
F1
sS'srtBdgt'
p5
I100
sS'check4updates'
p6
I00
sS'music'
p7
F0.3125
sS'effects'
p8
F0.75
sS'fps'
p9
I60
sS'coinRR'
p10
I100
sS'battleEnd'
p11
S'Do nothing'
p12
sS'font'
p13
Ns.